target datalayout = "e-m:e-p270:32:32-p271:32:32-p272:64:64-i64:64-i128:128-f80:128-n8:16:32:64-S128"
target triple = "x86_64-pc-linux-gnu"

%class.JfrAdaptiveSampler = type <{ ptr, %class.JfrPRNG, ptr, ptr, ptr, double, double, i64, i64, i32, [4 x i8] }>
%class.JfrPRNG = type { i64 }

@_ZTV18JfrAdaptiveSampler = hidden unnamed_addr constant { [6 x ptr] } { [6 x ptr] [ptr null, ptr null, ptr @_ZN18JfrAdaptiveSamplerD1Ev, ptr @_ZN18JfrAdaptiveSamplerD0Ev, ptr @_ZN18JfrAdaptiveSampler10initializeEv, ptr @__cxa_pure_virtual] }, align 8

; Function Attrs: mustprogress nounwind uwtable
define linkonce_odr hidden void @_ZN7JfrPRNGC2EPKv(ptr noundef nonnull align 8 dereferenceable(8) %0, ptr noundef %1) unnamed_addr #1 comdat align 2 {
  %3 = alloca ptr, align 8
  %4 = alloca ptr, align 8
  store ptr %0, ptr %3, align 8
  store ptr %1, ptr %4, align 8
  %5 = load ptr, ptr %3, align 8
  %6 = getelementptr inbounds %class.JfrPRNG, ptr %5, i32 0, i32 0
  %7 = load ptr, ptr %4, align 8
  %8 = ptrtoint ptr %7 to i64
  store i64 %8, ptr %6, align 8
  ret void
}

; Function Attrs: mustprogress nounwind uwtable
define hidden void @_ZN18JfrAdaptiveSamplerC2Ev(ptr noundef nonnull align 8 dereferenceable(76) %0) unnamed_addr #1 align 2 {
  %2 = alloca ptr, align 8
  store ptr %0, ptr %2, align 8
  %3 = load ptr, ptr %2, align 8
  store ptr getelementptr inbounds inrange(-16, 32) ({ [6 x ptr] }, ptr @_ZTV18JfrAdaptiveSampler, i32 0, i32 0, i32 2), ptr %3, align 8
  %4 = getelementptr inbounds %class.JfrAdaptiveSampler, ptr %3, i32 0, i32 1
  call void @_ZN7JfrPRNGC2EPKv(ptr noundef nonnull align 8 dereferenceable(8) %4, ptr noundef %3)
  %5 = getelementptr inbounds %class.JfrAdaptiveSampler, ptr %3, i32 0, i32 2
  store ptr null, ptr %5, align 8
  %6 = getelementptr inbounds %class.JfrAdaptiveSampler, ptr %3, i32 0, i32 3
  store ptr null, ptr %6, align 8
  %7 = getelementptr inbounds %class.JfrAdaptiveSampler, ptr %3, i32 0, i32 4
  store ptr null, ptr %7, align 8
  %8 = getelementptr inbounds %class.JfrAdaptiveSampler, ptr %3, i32 0, i32 5
  store double 0.000000e+00, ptr %8, align 8
  %9 = getelementptr inbounds %class.JfrAdaptiveSampler, ptr %3, i32 0, i32 6
  store double 0.000000e+00, ptr %9, align 8
  %10 = getelementptr inbounds %class.JfrAdaptiveSampler, ptr %3, i32 0, i32 7
  store i64 0, ptr %10, align 8
  %11 = getelementptr inbounds %class.JfrAdaptiveSampler, ptr %3, i32 0, i32 8
  store i64 0, ptr %11, align 8
  %12 = getelementptr inbounds %class.JfrAdaptiveSampler, ptr %3, i32 0, i32 9
  store volatile i32 0, ptr %12, align 8
  ret void
}